; Function Attrs: mustprogress nounwind uwtable
define internal void @_ZN4node12_GLOBAL__N_111BindingDataD2Ev(ptr noundef nonnull align 8 dereferenceable(57) %this) unnamed_addr #3 align 2 {
entry:
  store ptr getelementptr inbounds ({ [19 x ptr] }, ptr @_ZTVN4node12_GLOBAL__N_111BindingDataE, i64 0, i32 0, i64 2), ptr %this, align 8
  %parser_buffer = getelementptr inbounds i8, ptr %this, i64 32
  %0 = load ptr, ptr %parser_buffer, align 8
  %tobool.not.i.i.i = icmp eq ptr %0, null
  br i1 %tobool.not.i.i.i, label %_ZNSt6vectorIcSaIcEED2Ev.exit, label %if.then.i.i.i

if.then.i.i.i:                                    ; preds = %entry
  tail call void @_ZdlPv(ptr noundef nonnull %0) #23
  br label %_ZNSt6vectorIcSaIcEED2Ev.exit

_ZNSt6vectorIcSaIcEED2Ev.exit:                    ; preds = %entry, %if.then.i.i.i
  tail call void @_ZNSaIcED2Ev(ptr noundef nonnull align 1 dereferenceable(1) %parser_buffer) #20
  tail call void @_ZN4node10BaseObjectD2Ev(ptr noundef nonnull align 8 dereferenceable(32) %this) #20
  ret void
}